target datalayout = "e-m:e-p270:32:32-p271:32:32-p272:64:64-i64:64-i128:128-f80:128-n8:16:32:64-S128"
target triple = "x86_64-pc-linux-gnu"

%struct.ForEachState = type { ptr, i32 }
%struct.List = type { i32, i32, i32, ptr, [0 x %union.ListCell] }
%union.ListCell = type { ptr }
%struct.RelationData = type { %struct.RelFileLocator, ptr, i32, i32, i8, i8, i8, i8, i8, i32, i32, i32, i32, ptr, ptr, i32, %struct.LockInfoData, ptr, ptr, ptr, ptr, ptr, i8, ptr, ptr, ptr, ptr, ptr, ptr, i32, ptr, i8, ptr, ptr, i32, i8, i32, ptr, i8, ptr, ptr, ptr, ptr, ptr, ptr, ptr, i32, ptr, ptr, ptr, ptr, ptr, ptr, ptr, ptr, ptr, ptr, ptr, ptr, ptr, ptr, ptr, ptr, ptr, ptr, ptr, i32, i8, ptr }
%struct.RelFileLocator = type { i32, i32, i32 }
%struct.LockInfoData = type { %struct.LockRelId }
%struct.LockRelId = type { i32, i32 }
%struct.TriggerDesc = type { ptr, i32, i8, i8, i8, i8, i8, i8, i8, i8, i8, i8, i8, i8, i8, i8, i8, i8, i8, i8, i8, i8, i8 }
%struct.MergeAction = type { i32, i32, i32, i32, ptr, ptr, ptr }

@.str.1 = private unnamed_addr constant [17 x i8] c"rewriteHandler.c\00", align 1
@.str.7 = private unnamed_addr constant [29 x i8] c"unrecognized commandType: %d\00", align 1
@__func__.view_has_instead_trigger = private unnamed_addr constant [25 x i8] c"view_has_instead_trigger\00", align 1
@.str.8 = private unnamed_addr constant [25 x i8] c"unrecognized CmdType: %d\00", align 1

; Function Attrs: nounwind uwtable
define dso_local zeroext i1 @view_has_instead_trigger(ptr noundef %0, i32 noundef %1, ptr noundef %2) #0 {
  %4 = alloca i1, align 1
  %5 = alloca ptr, align 8
  %6 = alloca i32, align 4
  %7 = alloca ptr, align 8
  %8 = alloca ptr, align 8
  %9 = alloca i32, align 4
  %10 = alloca ptr, align 8
  %11 = alloca ptr, align 8
  %12 = alloca %struct.ForEachState, align 8
  store ptr %0, ptr %5, align 8
  store i32 %1, ptr %6, align 4
  store ptr %2, ptr %7, align 8
  call void @llvm.lifetime.start.p0(i64 8, ptr %8) #9
  %13 = load ptr, ptr %5, align 8
  %14 = getelementptr inbounds nuw %struct.RelationData, ptr %13, i32 0, i32 19
  %15 = load ptr, ptr %14, align 8
  store ptr %15, ptr %8, align 8
  %16 = load i32, ptr %6, align 4
  switch i32 %16, label %142 [
    i32 3, label %17
    i32 2, label %27
    i32 4, label %37
    i32 5, label %47
  ]

17:                                               ; preds = %3
  %18 = load ptr, ptr %8, align 8
  %19 = icmp ne ptr %18, null
  br i1 %19, label %20, label %26

20:                                               ; preds = %17
  %21 = load ptr, ptr %8, align 8
  %22 = getelementptr inbounds nuw %struct.TriggerDesc, ptr %21, i32 0, i32 4
  %23 = load i8, ptr %22, align 2, !range !4, !noundef !5
  %24 = trunc i8 %23 to i1
  br i1 %24, label %25, label %26

25:                                               ; preds = %20
  store i1 true, ptr %4, align 1
  store i32 1, ptr %9, align 4
  br label %155

26:                                               ; preds = %20, %17
  br label %154

27:                                               ; preds = %3
  %28 = load ptr, ptr %8, align 8
  %29 = icmp ne ptr %28, null
  br i1 %29, label %30, label %36

30:                                               ; preds = %27
  %31 = load ptr, ptr %8, align 8
  %32 = getelementptr inbounds nuw %struct.TriggerDesc, ptr %31, i32 0, i32 9
  %33 = load i8, ptr %32, align 1, !range !4, !noundef !5
  %34 = trunc i8 %33 to i1
  br i1 %34, label %35, label %36

35:                                               ; preds = %30
  store i1 true, ptr %4, align 1
  store i32 1, ptr %9, align 4
  br label %155

36:                                               ; preds = %30, %27
  br label %154

37:                                               ; preds = %3
  %38 = load ptr, ptr %8, align 8
  %39 = icmp ne ptr %38, null
  br i1 %39, label %40, label %46

40:                                               ; preds = %37
  %41 = load ptr, ptr %8, align 8
  %42 = getelementptr inbounds nuw %struct.TriggerDesc, ptr %41, i32 0, i32 14
  %43 = load i8, ptr %42, align 8, !range !4, !noundef !5
  %44 = trunc i8 %43 to i1
  br i1 %44, label %45, label %46

45:                                               ; preds = %40
  store i1 true, ptr %4, align 1
  store i32 1, ptr %9, align 4
  br label %155

46:                                               ; preds = %40, %37
  br label %154

47:                                               ; preds = %3
  call void @llvm.lifetime.start.p0(i64 8, ptr %10) #9
  store ptr null, ptr %10, align 8
  call void @llvm.lifetime.start.p0(i64 8, ptr %11) #9
  store ptr inttoptr (i64 1 to ptr), ptr %11, align 8
  br label %48

48:                                               ; preds = %138, %47
  %49 = load ptr, ptr %11, align 8
  %50 = icmp ne ptr %49, null
  br i1 %50, label %52, label %51

51:                                               ; preds = %48
  store i32 3, ptr %9, align 4
  br label %139

52:                                               ; preds = %48
  call void @llvm.lifetime.start.p0(i64 16, ptr %12) #9
  %53 = getelementptr inbounds nuw %struct.ForEachState, ptr %12, i32 0, i32 0
  %54 = load ptr, ptr %7, align 8
  store ptr %54, ptr %53, align 8
  %55 = getelementptr inbounds nuw %struct.ForEachState, ptr %12, i32 0, i32 1
  store i32 0, ptr %55, align 8
  %56 = getelementptr i8, ptr %12, i64 12
  call void @llvm.memset.p0.i64(ptr align 4 %56, i8 0, i64 4, i1 false)
  br label %57

57:                                               ; preds = %131, %52
  %58 = getelementptr inbounds nuw %struct.ForEachState, ptr %12, i32 0, i32 0
  %59 = load ptr, ptr %58, align 8
  %60 = icmp ne ptr %59, null
  br i1 %60, label %61, label %79

61:                                               ; preds = %57
  %62 = getelementptr inbounds nuw %struct.ForEachState, ptr %12, i32 0, i32 1
  %63 = load i32, ptr %62, align 8
  %64 = getelementptr inbounds nuw %struct.ForEachState, ptr %12, i32 0, i32 0
  %65 = load ptr, ptr %64, align 8
  %66 = getelementptr inbounds nuw %struct.List, ptr %65, i32 0, i32 1
  %67 = load i32, ptr %66, align 4
  %68 = icmp slt i32 %63, %67
  br i1 %68, label %69, label %79

69:                                               ; preds = %61
  %70 = getelementptr inbounds nuw %struct.ForEachState, ptr %12, i32 0, i32 0
  %71 = load ptr, ptr %70, align 8
  %72 = getelementptr inbounds nuw %struct.List, ptr %71, i32 0, i32 3
  %73 = load ptr, ptr %72, align 8
  %74 = getelementptr inbounds nuw %struct.ForEachState, ptr %12, i32 0, i32 1
  %75 = load i32, ptr %74, align 8
  %76 = sext i32 %75 to i64
  %77 = getelementptr inbounds %union.ListCell, ptr %73, i64 %76
  %78 = load ptr, ptr %77, align 8
  store ptr %78, ptr %10, align 8
  br label %79

79:                                               ; preds = %69, %61, %57
  %80 = phi i1 [ false, %61 ], [ false, %57 ], [ true, %69 ]
  br i1 %80, label %82, label %81

81:                                               ; preds = %79
  store i32 6, ptr %9, align 4
  br label %135

82:                                               ; preds = %79
  %83 = load ptr, ptr %10, align 8
  %84 = getelementptr inbounds nuw %struct.MergeAction, ptr %83, i32 0, i32 2
  %85 = load i32, ptr %84, align 8
  switch i32 %85, label %116 [
    i32 3, label %86
    i32 2, label %96
    i32 4, label %106
    i32 7, label %130
  ]

86:                                               ; preds = %82
  %87 = load ptr, ptr %8, align 8
  %88 = icmp ne ptr %87, null
  br i1 %88, label %89, label %94

89:                                               ; preds = %86
  %90 = load ptr, ptr %8, align 8
  %91 = getelementptr inbounds nuw %struct.TriggerDesc, ptr %90, i32 0, i32 4
  %92 = load i8, ptr %91, align 2, !range !4, !noundef !5
  %93 = trunc i8 %92 to i1
  br i1 %93, label %95, label %94

94:                                               ; preds = %89, %86
  store i1 false, ptr %4, align 1
  store i32 1, ptr %9, align 4
  br label %135

95:                                               ; preds = %89
  br label %130

96:                                               ; preds = %82
  %97 = load ptr, ptr %8, align 8
  %98 = icmp ne ptr %97, null
  br i1 %98, label %99, label %104

99:                                               ; preds = %96
  %100 = load ptr, ptr %8, align 8
  %101 = getelementptr inbounds nuw %struct.TriggerDesc, ptr %100, i32 0, i32 9
  %102 = load i8, ptr %101, align 1, !range !4, !noundef !5
  %103 = trunc i8 %102 to i1
  br i1 %103, label %105, label %104

104:                                              ; preds = %99, %96
  store i1 false, ptr %4, align 1
  store i32 1, ptr %9, align 4
  br label %135

105:                                              ; preds = %99
  br label %130

106:                                              ; preds = %82
  %107 = load ptr, ptr %8, align 8
  %108 = icmp ne ptr %107, null
  br i1 %108, label %109, label %114

109:                                              ; preds = %106
  %110 = load ptr, ptr %8, align 8
  %111 = getelementptr inbounds nuw %struct.TriggerDesc, ptr %110, i32 0, i32 14
  %112 = load i8, ptr %111, align 8, !range !4, !noundef !5
  %113 = trunc i8 %112 to i1
  br i1 %113, label %115, label %114

114:                                              ; preds = %109, %106
  store i1 false, ptr %4, align 1
  store i32 1, ptr %9, align 4
  br label %135

115:                                              ; preds = %109
  br label %130

116:                                              ; preds = %82
  br label %117

117:                                              ; preds = %116
  br i1 true, label %118, label %120

118:                                              ; preds = %117
  %119 = call zeroext i1 @errstart_cold(i32 noundef 21, ptr noundef null) #10
  br i1 %119, label %122, label %127

120:                                              ; preds = %117
  %121 = call zeroext i1 @errstart(i32 noundef 21, ptr noundef null)
  br i1 %121, label %122, label %127

122:                                              ; preds = %120, %118
  %123 = load ptr, ptr %10, align 8
  %124 = getelementptr inbounds nuw %struct.MergeAction, ptr %123, i32 0, i32 2
  %125 = load i32, ptr %124, align 8
  %126 = call i32 (ptr, ...) @errmsg_internal(ptr noundef @.str.7, i32 noundef %125)
  call void @errfinish(ptr noundef @.str.1, i32 noundef 2574, ptr noundef @__func__.view_has_instead_trigger)
  br label %127

127:                                              ; preds = %122, %120, %118
  unreachable

128:                                              ; No predecessors!
  br label %129

129:                                              ; preds = %128
  br label %130

130:                                              ; preds = %129, %82, %115, %105, %95
  br label %131

131:                                              ; preds = %130
  %132 = getelementptr inbounds nuw %struct.ForEachState, ptr %12, i32 0, i32 1
  %133 = load i32, ptr %132, align 8
  %134 = add i32 %133, 1
  store i32 %134, ptr %132, align 8
  br label %57, !llvm.loop !11

135:                                              ; preds = %114, %104, %94, %81
  call void @llvm.lifetime.end.p0(i64 16, ptr %12) #9
  %136 = load i32, ptr %9, align 4
  switch i32 %136, label %139 [
    i32 6, label %137
  ]

137:                                              ; preds = %135
  br label %138

138:                                              ; preds = %137
  store ptr null, ptr %11, align 8
  br label %48, !llvm.loop !12

139:                                              ; preds = %135, %51
  call void @llvm.lifetime.end.p0(i64 8, ptr %11) #9
  call void @llvm.lifetime.end.p0(i64 8, ptr %10) #9
  %140 = load i32, ptr %9, align 4
  switch i32 %140, label %155 [
    i32 3, label %141
  ]

141:                                              ; preds = %139
  store i1 true, ptr %4, align 1
  store i32 1, ptr %9, align 4
  br label %155

142:                                              ; preds = %3
  br label %143

143:                                              ; preds = %142
  br i1 true, label %144, label %146

144:                                              ; preds = %143
  %145 = call zeroext i1 @errstart_cold(i32 noundef 21, ptr noundef null) #10
  br i1 %145, label %148, label %151

146:                                              ; preds = %143
  %147 = call zeroext i1 @errstart(i32 noundef 21, ptr noundef null)
  br i1 %147, label %148, label %151

148:                                              ; preds = %146, %144
  %149 = load i32, ptr %6, align 4
  %150 = call i32 (ptr, ...) @errmsg_internal(ptr noundef @.str.8, i32 noundef %149)
  call void @errfinish(ptr noundef @.str.1, i32 noundef 2580, ptr noundef @__func__.view_has_instead_trigger)
  br label %151

151:                                              ; preds = %148, %146, %144
  unreachable

152:                                              ; No predecessors!
  br label %153

153:                                              ; preds = %152
  br label %154

154:                                              ; preds = %153, %46, %36, %26
  store i1 false, ptr %4, align 1
  store i32 1, ptr %9, align 4
  br label %155

155:                                              ; preds = %154, %141, %139, %45, %35, %25
  call void @llvm.lifetime.end.p0(i64 8, ptr %8) #9
  %156 = load i1, ptr %4, align 1
  ret i1 %156
}