; Function Attrs: nounwind uwtable
define dso_local noundef zeroext i1 @view_has_instead_trigger(ptr noundef readonly captures(none) %0, i32 noundef %1, ptr noundef readonly captures(address_is_null) %2) local_unnamed_addr #0 {
  %4 = getelementptr inbounds nuw i8, ptr %0, i64 104
  %5 = load ptr, ptr %4, align 8
  %.fr = freeze ptr %5
  switch i32 %1, label %54 [
    i32 3, label %20
    i32 2, label %25
    i32 4, label %30
    i32 5, label %.preheader
  ]

.preheader:                                       ; preds = %3
  %.not34 = icmp eq ptr %2, null
  br i1 %.not34, label %.critedge, label %.lr.ph

.lr.ph:                                           ; preds = %.preheader
  %6 = getelementptr inbounds nuw i8, ptr %2, i64 4
  %7 = load i32, ptr %6, align 4
  %8 = getelementptr inbounds nuw i8, ptr %2, i64 16
  %.not35 = icmp eq ptr %.fr, null
  %9 = getelementptr inbounds nuw i8, ptr %.fr, i64 24
  %10 = getelementptr inbounds nuw i8, ptr %.fr, i64 19
  %11 = getelementptr inbounds nuw i8, ptr %.fr, i64 14
  %12 = icmp sgt i32 %7, 0
  br i1 %.not35, label %.lr.ph.split.us.split, label %.lr.ph.split.split.split.split

.lr.ph.split.us.split:                            ; preds = %.lr.ph
  br i1 %12, label %.lr.ph148.split.us.split.us.preheader, label %.critedge

.lr.ph148.split.us.split.us.preheader:            ; preds = %.lr.ph.split.us.split
  %13 = load ptr, ptr %8, align 8
  %wide.trip.count246 = zext nneg i32 %7 to i64
  br label %.lr.ph148.split.us.split.us

.lr.ph148.split.us.split.us:                      ; preds = %.lr.ph148.split.us.split.us.preheader, %18
  %indvars.iv243 = phi i64 [ 0, %.lr.ph148.split.us.split.us.preheader ], [ %indvars.iv.next244, %18 ]
  %14 = getelementptr inbounds nuw %union.ListCell, ptr %13, i64 %indvars.iv243
  %15 = load ptr, ptr %14, align 8
  %16 = getelementptr inbounds nuw i8, ptr %15, i64 8
  %17 = load i32, ptr %16, align 8
  switch i32 %17, label %.split.us [
    i32 3, label %.critedge
    i32 2, label %.critedge
    i32 4, label %.critedge
    i32 7, label %18
  ]

18:                                               ; preds = %.lr.ph148.split.us.split.us
  %indvars.iv.next244 = add nuw nsw i64 %indvars.iv243, 1
  %exitcond247.not = icmp eq i64 %indvars.iv.next244, %wide.trip.count246
  br i1 %exitcond247.not, label %.critedge, label %.lr.ph148.split.us.split.us

.lr.ph.split.split.split.split:                   ; preds = %.lr.ph
  br i1 %12, label %.lr.ph107, label %.critedge

.lr.ph107:                                        ; preds = %.lr.ph.split.split.split.split
  %19 = load ptr, ptr %8, align 8
  %wide.trip.count = zext nneg i32 %7 to i64
  br label %35

20:                                               ; preds = %3
  %.not40 = icmp eq ptr %.fr, null
  br i1 %.not40, label %57, label %21

21:                                               ; preds = %20
  %22 = getelementptr inbounds nuw i8, ptr %.fr, i64 14
  %23 = load i8, ptr %22, align 2, !range !4, !noundef !5
  %24 = trunc nuw i8 %23 to i1
  br i1 %24, label %.critedge, label %57

25:                                               ; preds = %3
  %.not39 = icmp eq ptr %.fr, null
  br i1 %.not39, label %57, label %26

26:                                               ; preds = %25
  %27 = getelementptr inbounds nuw i8, ptr %.fr, i64 19
  %28 = load i8, ptr %27, align 1, !range !4, !noundef !5
  %29 = trunc nuw i8 %28 to i1
  br i1 %29, label %.critedge, label %57

30:                                               ; preds = %3
  %.not38 = icmp eq ptr %.fr, null
  br i1 %.not38, label %57, label %31

31:                                               ; preds = %30
  %32 = getelementptr inbounds nuw i8, ptr %.fr, i64 24
  %33 = load i8, ptr %32, align 8, !range !4, !noundef !5
  %34 = trunc nuw i8 %33 to i1
  br i1 %34, label %.critedge, label %57

35:                                               ; preds = %.lr.ph107, %53
  %indvars.iv = phi i64 [ 0, %.lr.ph107 ], [ %indvars.iv.next, %53 ]
  %36 = getelementptr inbounds nuw %union.ListCell, ptr %19, i64 %indvars.iv
  %37 = load ptr, ptr %36, align 8
  %38 = getelementptr inbounds nuw i8, ptr %37, i64 8
  %39 = load i32, ptr %38, align 8
  switch i32 %39, label %.split.us [
    i32 3, label %40
    i32 2, label %43
    i32 4, label %46
    i32 7, label %53
  ]

40:                                               ; preds = %35
  %41 = load i8, ptr %11, align 2, !range !4, !noundef !5
  %42 = trunc nuw i8 %41 to i1
  br i1 %42, label %53, label %.critedge

43:                                               ; preds = %35
  %44 = load i8, ptr %10, align 1, !range !4, !noundef !5
  %45 = trunc nuw i8 %44 to i1
  br i1 %45, label %53, label %.critedge

46:                                               ; preds = %35
  %47 = load i8, ptr %9, align 8, !range !4, !noundef !5
  %48 = trunc nuw i8 %47 to i1
  br i1 %48, label %53, label %.critedge

.split.us:                                        ; preds = %35, %.lr.ph148.split.us.split.us
  %.us-phi59 = phi ptr [ %15, %.lr.ph148.split.us.split.us ], [ %37, %35 ]
  %49 = getelementptr inbounds nuw i8, ptr %.us-phi59, i64 8
  %50 = tail call zeroext i1 @errstart_cold(i32 noundef 21, ptr noundef null) #11
  tail call void @llvm.assume(i1 %50)
  %51 = load i32, ptr %49, align 8
  %52 = tail call i32 (ptr, ...) @errmsg_internal(ptr noundef nonnull @.str.7, i32 noundef %51) #10
  tail call void @errfinish(ptr noundef nonnull @.str.1, i32 noundef 2574, ptr noundef nonnull @__func__.view_has_instead_trigger) #10
  unreachable

53:                                               ; preds = %35, %40, %43, %46
  %indvars.iv.next = add nuw nsw i64 %indvars.iv, 1
  %exitcond.not = icmp eq i64 %indvars.iv.next, %wide.trip.count
  br i1 %exitcond.not, label %.critedge, label %35

54:                                               ; preds = %3
  %55 = tail call zeroext i1 @errstart_cold(i32 noundef 21, ptr noundef null) #11
  tail call void @llvm.assume(i1 %55)
  %56 = tail call i32 (ptr, ...) @errmsg_internal(ptr noundef nonnull @.str.8, i32 noundef %1) #10
  tail call void @errfinish(ptr noundef nonnull @.str.1, i32 noundef 2580, ptr noundef nonnull @__func__.view_has_instead_trigger) #10
  unreachable

57:                                               ; preds = %30, %31, %25, %26, %20, %21
  br label %.critedge

.critedge:                                        ; preds = %40, %43, %46, %53, %.lr.ph148.split.us.split.us, %.lr.ph148.split.us.split.us, %.lr.ph148.split.us.split.us, %18, %.preheader, %.lr.ph.split.split.split.split, %.lr.ph.split.us.split, %31, %26, %21, %57
  %.0 = phi i1 [ false, %57 ], [ true, %21 ], [ true, %26 ], [ true, %31 ], [ true, %.preheader ], [ true, %.lr.ph.split.us.split ], [ true, %.lr.ph.split.split.split.split ], [ false, %.lr.ph148.split.us.split.us ], [ false, %.lr.ph148.split.us.split.us ], [ false, %.lr.ph148.split.us.split.us ], [ true, %18 ], [ false, %40 ], [ false, %43 ], [ false, %46 ], [ true, %53 ]
  ret i1 %.0
}